; Function Attrs: mustprogress ssp uwtable
define void @_ZN6open3d4core17DynamicSizeVectorC2ERKNS0_10SizeVectorE(ptr noundef nonnull align 8 dereferenceable(80) %0, ptr noundef nonnull readonly align 8 captures(none) dereferenceable(48) %1) unnamed_addr #0 align 2 {
  %3 = load ptr, ptr %1, align 8, !tbaa !11
  %4 = getelementptr inbounds nuw i8, ptr %1, i64 8
  %5 = load i32, ptr %4, align 8, !tbaa !15
  %6 = zext i32 %5 to i64
  %7 = getelementptr inbounds nuw i64, ptr %3, i64 %6
  tail call void @_ZN6open3d4core11SmallVectorINS_7utility8optionalIlEELj4EEC2IPKlvEET_S9_(ptr noundef nonnull align 8 dereferenceable(80) %0, ptr noundef %3, ptr noundef %7)
  ret void
}